target datalayout = "e-m:e-p270:32:32-p271:32:32-p272:64:64-i64:64-i128:128-f80:128-n8:16:32:64-S128"
target triple = "x86_64-pc-linux-gnu"

@hf_pn_pa_profile_status_quality = internal global i32 0, align 4
@hf_pn_pa_profile_status_substatus_bad = internal global i32 0, align 4
@hf_pn_pa_profile_status_substatus_uncertain = internal global i32 0, align 4
@hf_pn_pa_profile_status_substatus_good = internal global i32 0, align 4
@hf_pn_pa_profile_status_update_event = internal global i32 0, align 4
@hf_pn_pa_profile_status_simulate = internal global i32 0, align 4
@ett_pn_pa_profile_status = internal global i32 0, align 4
@.str.122 = private unnamed_addr constant [6 x i8] c" (%s)\00", align 1
@.str.131 = private unnamed_addr constant [8 x i8] c"invalid\00", align 1

; Function Attrs: null_pointer_is_valid sspstrong uwtable
define internal i32 @dissect_pn_pa_profile_status(ptr noundef %0, i32 noundef %1, ptr noundef %2, ptr noundef %3, i32 noundef %4) #0 {
  %6 = alloca ptr, align 8
  %7 = alloca i32, align 4
  %8 = alloca ptr, align 8
  %9 = alloca ptr, align 8
  %10 = alloca i32, align 4
  %11 = alloca i8, align 1
  %12 = alloca i8, align 1
  %13 = alloca ptr, align 8
  %14 = alloca ptr, align 8
  %15 = alloca ptr, align 8
  store ptr %0, ptr %6, align 8
  store i32 %1, ptr %7, align 4
  store ptr %2, ptr %8, align 8
  store ptr %3, ptr %9, align 8
  store i32 %4, ptr %10, align 4
  %16 = load ptr, ptr %9, align 8
  %17 = icmp ne ptr %16, null
  br i1 %17, label %18, label %85

18:                                               ; preds = %5
  call void @llvm.lifetime.start.p0(i64 1, ptr %11) #5
  call void @llvm.lifetime.start.p0(i64 1, ptr %12) #5
  call void @llvm.lifetime.start.p0(i64 8, ptr %13) #5
  call void @llvm.lifetime.start.p0(i64 8, ptr %14) #5
  call void @llvm.lifetime.start.p0(i64 8, ptr %15) #5
  store ptr null, ptr %15, align 8
  %19 = load ptr, ptr %6, align 8
  %20 = load i32, ptr %7, align 4
  %21 = call zeroext i8 @tvb_get_uint8(ptr noundef %19, i32 noundef %20)
  store i8 %21, ptr %11, align 1
  %22 = load i8, ptr %11, align 1
  %23 = zext i8 %22 to i32
  %24 = ashr i32 %23, 6
  %25 = and i32 %24, 3
  %26 = trunc i32 %25 to i8
  store i8 %26, ptr %12, align 1
  %27 = load ptr, ptr %9, align 8
  %28 = load i32, ptr %10, align 4
  %29 = load ptr, ptr %6, align 8
  %30 = load i32, ptr %7, align 4
  %31 = load i8, ptr %11, align 1
  %32 = zext i8 %31 to i32
  %33 = call ptr @proto_tree_add_uint(ptr noundef %27, i32 noundef %28, ptr noundef %29, i32 noundef %30, i32 noundef 1, i32 noundef %32)
  store ptr %33, ptr %13, align 8
  %34 = load i8, ptr %12, align 1
  %35 = zext i8 %34 to i32
  %36 = call ptr @try_val_to_str(i32 noundef %35, ptr noundef @pn_pa_profile_status_quality)
  store ptr %36, ptr %15, align 8
  %37 = load ptr, ptr %13, align 8
  %38 = load ptr, ptr %15, align 8
  %39 = icmp ne ptr %38, null
  br i1 %39, label %40, label %42

40:                                               ; preds = %18
  %41 = load ptr, ptr %15, align 8
  br label %43

42:                                               ; preds = %18
  br label %43

43:                                               ; preds = %42, %40
  %44 = phi ptr [ %41, %40 ], [ @.str.131, %42 ]
  call void (ptr, ptr, ...) @proto_item_append_text(ptr noundef %37, ptr noundef @.str.122, ptr noundef %44)
  %45 = load ptr, ptr %13, align 8
  %46 = load i32, ptr @ett_pn_pa_profile_status, align 4
  %47 = call ptr @proto_item_add_subtree(ptr noundef %45, i32 noundef %46)
  store ptr %47, ptr %14, align 8
  %48 = load ptr, ptr %14, align 8
  %49 = load i32, ptr @hf_pn_pa_profile_status_quality, align 4
  %50 = load ptr, ptr %6, align 8
  %51 = load i32, ptr %7, align 4
  %52 = call ptr @proto_tree_add_item(ptr noundef %48, i32 noundef %49, ptr noundef %50, i32 noundef %51, i32 noundef 1, i32 noundef 0)
  %53 = load i8, ptr %12, align 1
  %54 = zext i8 %53 to i32
  switch i32 %54, label %73 [
    i32 0, label %55
    i32 1, label %61
    i32 2, label %67
  ]

55:                                               ; preds = %43
  %56 = load ptr, ptr %14, align 8
  %57 = load i32, ptr @hf_pn_pa_profile_status_substatus_bad, align 4
  %58 = load ptr, ptr %6, align 8
  %59 = load i32, ptr %7, align 4
  %60 = call ptr @proto_tree_add_item(ptr noundef %56, i32 noundef %57, ptr noundef %58, i32 noundef %59, i32 noundef 1, i32 noundef 0)
  br label %74

61:                                               ; preds = %43
  %62 = load ptr, ptr %14, align 8
  %63 = load i32, ptr @hf_pn_pa_profile_status_substatus_uncertain, align 4
  %64 = load ptr, ptr %6, align 8
  %65 = load i32, ptr %7, align 4
  %66 = call ptr @proto_tree_add_item(ptr noundef %62, i32 noundef %63, ptr noundef %64, i32 noundef %65, i32 noundef 1, i32 noundef 0)
  br label %74

67:                                               ; preds = %43
  %68 = load ptr, ptr %14, align 8
  %69 = load i32, ptr @hf_pn_pa_profile_status_substatus_good, align 4
  %70 = load ptr, ptr %6, align 8
  %71 = load i32, ptr %7, align 4
  %72 = call ptr @proto_tree_add_item(ptr noundef %68, i32 noundef %69, ptr noundef %70, i32 noundef %71, i32 noundef 1, i32 noundef 0)
  br label %74

73:                                               ; preds = %43
  br label %74

74:                                               ; preds = %73, %67, %61, %55
  %75 = load ptr, ptr %14, align 8
  %76 = load i32, ptr @hf_pn_pa_profile_status_update_event, align 4
  %77 = load ptr, ptr %6, align 8
  %78 = load i32, ptr %7, align 4
  %79 = call ptr @proto_tree_add_item(ptr noundef %75, i32 noundef %76, ptr noundef %77, i32 noundef %78, i32 noundef 1, i32 noundef 0)
  %80 = load ptr, ptr %14, align 8
  %81 = load i32, ptr @hf_pn_pa_profile_status_simulate, align 4
  %82 = load ptr, ptr %6, align 8
  %83 = load i32, ptr %7, align 4
  %84 = call ptr @proto_tree_add_item(ptr noundef %80, i32 noundef %81, ptr noundef %82, i32 noundef %83, i32 noundef 1, i32 noundef 0)
  call void @llvm.lifetime.end.p0(i64 8, ptr %15) #5
  call void @llvm.lifetime.end.p0(i64 8, ptr %14) #5
  call void @llvm.lifetime.end.p0(i64 8, ptr %13) #5
  call void @llvm.lifetime.end.p0(i64 1, ptr %12) #5
  call void @llvm.lifetime.end.p0(i64 1, ptr %11) #5
  br label %85

85:                                               ; preds = %74, %5
  %86 = load i32, ptr %7, align 4
  %87 = add i32 %86, 1
  ret i32 %87
}