; Function Attrs: null_pointer_is_valid sspstrong uwtable
define internal fastcc void @dissect_pn_pa_profile_status(ptr noundef %0, i32 noundef %1, ptr noundef %2, i32 noundef %3) unnamed_addr #0 {
  %.not = icmp eq ptr %2, null
  br i1 %.not, label %26, label %5

5:                                                ; preds = %4
  %6 = tail call zeroext i8 @tvb_get_uint8(ptr noundef %0, i32 noundef %1)
  %7 = zext i8 %6 to i32
  %8 = lshr i8 %6, 6
  %9 = tail call ptr @proto_tree_add_uint(ptr noundef nonnull %2, i32 noundef %3, ptr noundef %0, i32 noundef %1, i32 noundef 1, i32 noundef %7)
  %10 = zext nneg i8 %8 to i32
  %11 = tail call ptr @try_val_to_str(i32 noundef %10, ptr noundef nonnull @pn_pa_profile_status_quality)
  %.not33 = icmp eq ptr %11, null
  %12 = select i1 %.not33, ptr @.str.131, ptr %11
  tail call void (ptr, ptr, ...) @proto_item_append_text(ptr noundef %9, ptr noundef nonnull @.str.122, ptr noundef nonnull %12)
  %13 = load i32, ptr @ett_pn_pa_profile_status, align 4
  %14 = tail call ptr @proto_item_add_subtree(ptr noundef %9, i32 noundef %13)
  %15 = load i32, ptr @hf_pn_pa_profile_status_quality, align 4
  %16 = tail call ptr @proto_tree_add_item(ptr noundef %14, i32 noundef %15, ptr noundef %0, i32 noundef %1, i32 noundef 1, i32 noundef 0)
  switch i8 %8, label %default.unreachable [
    i8 0, label %.sink.split
    i8 1, label %17
    i8 2, label %18
    i8 3, label %21
  ]

17:                                               ; preds = %5
  br label %.sink.split

18:                                               ; preds = %5
  br label %.sink.split

default.unreachable:                              ; preds = %5
  unreachable

.sink.split:                                      ; preds = %5, %17, %18
  %hf_pn_pa_profile_status_substatus_good.sink = phi ptr [ @hf_pn_pa_profile_status_substatus_good, %18 ], [ @hf_pn_pa_profile_status_substatus_uncertain, %17 ], [ @hf_pn_pa_profile_status_substatus_bad, %5 ]
  %19 = load i32, ptr %hf_pn_pa_profile_status_substatus_good.sink, align 4
  %20 = tail call ptr @proto_tree_add_item(ptr noundef %14, i32 noundef %19, ptr noundef %0, i32 noundef %1, i32 noundef 1, i32 noundef 0)
  br label %21

21:                                               ; preds = %.sink.split, %5
  %22 = load i32, ptr @hf_pn_pa_profile_status_update_event, align 4
  %23 = tail call ptr @proto_tree_add_item(ptr noundef %14, i32 noundef %22, ptr noundef %0, i32 noundef %1, i32 noundef 1, i32 noundef 0)
  %24 = load i32, ptr @hf_pn_pa_profile_status_simulate, align 4
  %25 = tail call ptr @proto_tree_add_item(ptr noundef %14, i32 noundef %24, ptr noundef %0, i32 noundef %1, i32 noundef 1, i32 noundef 0)
  br label %26

26:                                               ; preds = %21, %4
  ret void
}